; Function Attrs: mustprogress nounwind uwtable
define internal fastcc noundef ptr @_ZL20create_perf_variablePKcN8PerfData5UnitsEP10JavaThread(ptr noundef %0, i32 noundef %1, ptr noundef %2) unnamed_addr #3 {
  %4 = tail call align 8 ptr @llvm.threadlocal.address.p0(ptr align 8 @_ZN6Thread12_thr_currentE)
  %5 = load ptr, ptr %4, align 8
  %6 = getelementptr inbounds i8, ptr %5, i64 800
  %7 = load ptr, ptr %6, align 8
  %8 = getelementptr inbounds i8, ptr %7, i64 24
  %9 = load ptr, ptr %8, align 8
  %10 = getelementptr inbounds i8, ptr %7, i64 32
  %11 = load ptr, ptr %10, align 8
  %12 = getelementptr inbounds i8, ptr %7, i64 40
  %13 = load ptr, ptr %12, align 8
  %14 = getelementptr inbounds i8, ptr %7, i64 8
  %15 = load i64, ptr %14, align 8
  %16 = tail call noundef ptr @_ZN15PerfDataManager12counter_nameEPKcS1_(ptr noundef nonnull @.str.26, ptr noundef %0) #16
  %17 = tail call noundef ptr @_ZN15PerfDataManager20create_long_variableE9CounterNSPKcN8PerfData5UnitsElP10JavaThread(i32 noundef 5, ptr noundef %16, i32 noundef %1, i64 noundef 0, ptr noundef %2) #16
  %18 = load ptr, ptr %9, align 8
  %.not.i.i.i.i = icmp eq ptr %18, null
  br i1 %.not.i.i.i.i, label %20, label %19

19:                                               ; preds = %3
  tail call void @_ZN5Arena17set_size_in_bytesEm(ptr noundef nonnull align 8 dereferenceable(48) %7, i64 noundef %15) #16
  tail call void @_ZN5Chunk9next_chopEPS_(ptr noundef nonnull %9) #16
  br label %20

20:                                               ; preds = %19, %3
  %21 = load ptr, ptr %10, align 8
  %.not8.i.i.i.i = icmp eq ptr %21, %11
  br i1 %.not8.i.i.i.i, label %_ZN12ResourceMarkD2Ev.exit, label %22

22:                                               ; preds = %20
  store ptr %9, ptr %8, align 8
  store ptr %11, ptr %10, align 8
  store ptr %13, ptr %12, align 8
  br label %_ZN12ResourceMarkD2Ev.exit

_ZN12ResourceMarkD2Ev.exit:                       ; preds = %20, %22
  ret ptr %17
}